target datalayout = "e-m:e-p270:32:32-p271:32:32-p272:64:64-i64:64-i128:128-f80:128-n8:16:32:64-S128"
target triple = "x86_64-pc-linux-gnu"

%struct.H5P_prop_get_ud_t = type { ptr }

@H5P_init_g = external global i8, align 1
@H5_libterm_g = external global i8, align 1
@.str.7 = private unnamed_addr constant [100 x i8] c"generated/home/dtcxzyw/WorkSpace/Projects/compilers/llvm-opt-benchmark/bench/hdf5/hdf5/src/H5Pint.c\00", align 1
@H5E_FUNC_g = external global i64, align 8
@H5E_CANTINIT_g = external global i64, align 8
@.str.8 = private unnamed_addr constant [32 x i8] c"interface initialization failed\00", align 1
@H5E_PLIST_g = external global i64, align 8
@H5E_CANTOPERATE_g = external global i64, align 8
@__func__.H5P_get = private unnamed_addr constant [8 x i8] c"H5P_get\00", align 1
@.str.58 = private unnamed_addr constant [36 x i8] c"can't operate on plist to get value\00", align 1

; Function Attrs: nounwind uwtable
define i32 @H5P_get(ptr noundef %0, ptr noundef %1, ptr noundef %2) #0 {
  %4 = alloca ptr, align 8
  %5 = alloca ptr, align 8
  %6 = alloca ptr, align 8
  %7 = alloca %struct.H5P_prop_get_ud_t, align 8
  %8 = alloca i32, align 4
  %9 = alloca i8, align 1
  store ptr %0, ptr %4, align 8, !tbaa !59
  store ptr %1, ptr %5, align 8, !tbaa !39
  store ptr %2, ptr %6, align 8, !tbaa !40
  call void @llvm.lifetime.start.p0(i64 8, ptr %7) #8
  call void @llvm.lifetime.start.p0(i64 4, ptr %8) #8
  store i32 0, ptr %8, align 4, !tbaa !3
  call void @llvm.lifetime.start.p0(i64 1, ptr %9) #8
  store i8 0, ptr %9, align 1, !tbaa !7
  %10 = load i8, ptr @H5P_init_g, align 1, !tbaa !7, !range !9, !noundef !10
  %11 = trunc i8 %10 to i1
  br i1 %11, label %16, label %12

12:                                               ; preds = %3
  %13 = load i8, ptr @H5_libterm_g, align 1, !tbaa !7, !range !9, !noundef !10
  %14 = trunc i8 %13 to i1
  %15 = xor i1 %14, true
  br label %16

16:                                               ; preds = %12, %3
  %17 = phi i1 [ false, %3 ], [ %15, %12 ]
  %18 = xor i1 %17, true
  %19 = xor i1 %18, true
  %20 = zext i1 %19 to i32
  %21 = sext i32 %20 to i64
  %22 = call i64 @llvm.expect.i64(i64 %21, i64 0)
  %23 = icmp ne i64 %22, 0
  br i1 %23, label %24, label %47

24:                                               ; preds = %16
  store i8 1, ptr @H5P_init_g, align 1, !tbaa !7
  %25 = call i32 @H5P__init_package()
  %26 = icmp slt i32 %25, 0
  br i1 %26, label %27, label %46

27:                                               ; preds = %24
  store i8 0, ptr @H5P_init_g, align 1, !tbaa !7
  br label %28

28:                                               ; preds = %27
  br label %29

29:                                               ; preds = %28
  br label %30

30:                                               ; preds = %29
  %31 = load i64, ptr @H5E_FUNC_g, align 8, !tbaa !11
  %32 = load i64, ptr @H5E_CANTINIT_g, align 8, !tbaa !11
  %33 = call i32 (ptr, ptr, i32, i64, i64, ptr, ...) @H5E_printf_stack(ptr noundef @.str.7, ptr noundef @__func__.H5P_get, i32 noundef 4788, i64 noundef %31, i64 noundef %32, ptr noundef @.str.8)
  br label %34

34:                                               ; preds = %30
  br label %35

35:                                               ; preds = %34
  store i8 1, ptr %9, align 1, !tbaa !7
  %36 = load i8, ptr %9, align 1, !tbaa !7, !range !9, !noundef !10
  %37 = trunc i8 %36 to i1
  %38 = zext i1 %37 to i8
  store i8 %38, ptr %9, align 1, !tbaa !7
  br label %39

39:                                               ; preds = %35
  br label %40

40:                                               ; preds = %39
  br label %41

41:                                               ; preds = %40
  store i32 -1, ptr %8, align 4, !tbaa !3
  br label %89

42:                                               ; No predecessors!
  br label %43

43:                                               ; preds = %42
  br label %44

44:                                               ; preds = %43
  br label %45

45:                                               ; preds = %44
  br label %46

46:                                               ; preds = %45, %24
  br label %47

47:                                               ; preds = %46, %16
  %48 = load i8, ptr @H5P_init_g, align 1, !tbaa !7, !range !9, !noundef !10
  %49 = trunc i8 %48 to i1
  br i1 %49, label %54, label %50

50:                                               ; preds = %47
  %51 = load i8, ptr @H5_libterm_g, align 1, !tbaa !7, !range !9, !noundef !10
  %52 = trunc i8 %51 to i1
  %53 = xor i1 %52, true
  br label %54

54:                                               ; preds = %50, %47
  %55 = phi i1 [ true, %47 ], [ %53, %50 ]
  %56 = xor i1 %55, true
  %57 = xor i1 %56, true
  %58 = zext i1 %57 to i32
  %59 = sext i32 %58 to i64
  %60 = call i64 @llvm.expect.i64(i64 %59, i64 1)
  %61 = icmp ne i64 %60, 0
  br i1 %61, label %62, label %90

62:                                               ; preds = %54
  %63 = load ptr, ptr %6, align 8, !tbaa !40
  %64 = getelementptr inbounds nuw %struct.H5P_prop_get_ud_t, ptr %7, i32 0, i32 0
  store ptr %63, ptr %64, align 8, !tbaa !105
  %65 = load ptr, ptr %4, align 8, !tbaa !59
  %66 = load ptr, ptr %5, align 8, !tbaa !39
  %67 = call i32 @H5P__do_prop(ptr noundef %65, ptr noundef %66, ptr noundef @H5P__get_cb, ptr noundef @H5P__get_cb, ptr noundef %7)
  %68 = icmp slt i32 %67, 0
  br i1 %68, label %69, label %88

69:                                               ; preds = %62
  br label %70

70:                                               ; preds = %69
  br label %71

71:                                               ; preds = %70
  br label %72

72:                                               ; preds = %71
  %73 = load i64, ptr @H5E_PLIST_g, align 8, !tbaa !11
  %74 = load i64, ptr @H5E_CANTOPERATE_g, align 8, !tbaa !11
  %75 = call i32 (ptr, ptr, i32, i64, i64, ptr, ...) @H5E_printf_stack(ptr noundef @.str.7, ptr noundef @__func__.H5P_get, i32 noundef 4798, i64 noundef %73, i64 noundef %74, ptr noundef @.str.58)
  br label %76

76:                                               ; preds = %72
  br label %77

77:                                               ; preds = %76
  store i8 1, ptr %9, align 1, !tbaa !7
  %78 = load i8, ptr %9, align 1, !tbaa !7, !range !9, !noundef !10
  %79 = trunc i8 %78 to i1
  %80 = zext i1 %79 to i8
  store i8 %80, ptr %9, align 1, !tbaa !7
  br label %81

81:                                               ; preds = %77
  br label %82

82:                                               ; preds = %81
  br label %83

83:                                               ; preds = %82
  store i32 -1, ptr %8, align 4, !tbaa !3
  br label %89

84:                                               ; No predecessors!
  br label %85

85:                                               ; preds = %84
  br label %86

86:                                               ; preds = %85
  br label %87

87:                                               ; preds = %86
  br label %88

88:                                               ; preds = %87, %62
  br label %89

89:                                               ; preds = %88, %83, %41
  br label %90

90:                                               ; preds = %89, %54
  %91 = load i32, ptr %8, align 4, !tbaa !3
  call void @llvm.lifetime.end.p0(i64 1, ptr %9) #8
  call void @llvm.lifetime.end.p0(i64 4, ptr %8) #8
  call void @llvm.lifetime.end.p0(i64 8, ptr %7) #8
  ret i32 %91
}